target datalayout = "e-m:e-p270:32:32-p271:32:32-p272:64:64-i64:64-i128:128-f80:128-n8:16:32:64-S128"
target triple = "x86_64-pc-linux-gnu"

%struct.ieee_802_11_phdr = type { i32, i8, i32, %union.ieee_802_11_phy_info, i16, i16, i32, i16, i8, i8, i8, i8, i8, i8, i64, i32, i32, i8 }
%union.ieee_802_11_phy_info = type { %struct.ieee_802_11be }
%struct.ieee_802_11be = type { i8, i8, i8, i8, [4 x %struct.ieee_802_11be_user_info] }
%struct.ieee_802_11be_user_info = type { i32 }
%struct.ieee_802_11n = type { i8, i16, i32, i8, i32 }

@hf_radiotap_ht_mcsindex = internal global i32 0, align 4
@hf_radiotap_ht_bw = internal global i32 0, align 4
@hf_radiotap_ht_length = internal global i32 0, align 4
@hf_radiotap_ht_smoothing = internal global i32 0, align 4
@hf_radiotap_ht_notsounding = internal global i32 0, align 4
@hf_radiotap_ht_aggregation = internal global i32 0, align 4
@hf_radiotap_ht_stbc = internal global i32 0, align 4
@hf_radiotap_ht_feccoding = internal global i32 0, align 4
@hf_radiotap_ht_short_gi = internal global i32 0, align 4
@hf_radiotap_ht_ness = internal global i32 0, align 4
@hf_radiotap_ht_crc = internal global i32 0, align 4
@hf_radiotap_ht_tail = internal global i32 0, align 4

; Function Attrs: null_pointer_is_valid sspstrong uwtable
define internal i32 @decode_ht_sig(ptr noundef %0, ptr noundef %1, i32 noundef %2, ptr noundef %3) #0 {
  %5 = alloca ptr, align 8
  %6 = alloca ptr, align 8
  %7 = alloca i32, align 4
  %8 = alloca ptr, align 8
  %9 = alloca i32, align 4
  %10 = alloca i32, align 4
  %11 = alloca i32, align 4
  %12 = alloca i8, align 1
  %13 = alloca i32, align 4
  store ptr %0, ptr %5, align 8
  store ptr %1, ptr %6, align 8
  store i32 %2, ptr %7, align 4
  store ptr %3, ptr %8, align 8
  call void @llvm.lifetime.start.p0(i64 4, ptr %9) #8
  call void @llvm.lifetime.start.p0(i64 4, ptr %10) #8
  call void @llvm.lifetime.start.p0(i64 4, ptr %11) #8
  call void @llvm.lifetime.start.p0(i64 1, ptr %12) #8
  call void @llvm.lifetime.start.p0(i64 4, ptr %13) #8
  %14 = load ptr, ptr %5, align 8
  %15 = load i32, ptr @hf_radiotap_ht_mcsindex, align 4
  %16 = load ptr, ptr %6, align 8
  %17 = load i32, ptr %7, align 4
  %18 = call ptr @proto_tree_add_item(ptr noundef %14, i32 noundef %15, ptr noundef %16, i32 noundef %17, i32 noundef 3, i32 noundef -2147483648)
  %19 = load ptr, ptr %5, align 8
  %20 = load i32, ptr @hf_radiotap_ht_bw, align 4
  %21 = load ptr, ptr %6, align 8
  %22 = load i32, ptr %7, align 4
  %23 = call ptr @proto_tree_add_item_ret_uint(ptr noundef %19, i32 noundef %20, ptr noundef %21, i32 noundef %22, i32 noundef 3, i32 noundef -2147483648, ptr noundef %9)
  %24 = load i32, ptr %9, align 4
  %25 = icmp ne i32 %24, 0
  br i1 %25, label %26, label %35

26:                                               ; preds = %4
  %27 = load ptr, ptr %8, align 8
  %28 = getelementptr inbounds nuw %struct.ieee_802_11_phdr, ptr %27, i32 0, i32 3
  %29 = load i8, ptr %28, align 4
  %30 = and i8 %29, -3
  %31 = or i8 %30, 2
  store i8 %31, ptr %28, align 4
  %32 = load ptr, ptr %8, align 8
  %33 = getelementptr inbounds nuw %struct.ieee_802_11_phdr, ptr %32, i32 0, i32 3
  %34 = getelementptr inbounds nuw %struct.ieee_802_11n, ptr %33, i32 0, i32 2
  store i32 1, ptr %34, align 4
  br label %35

35:                                               ; preds = %26, %4
  %36 = load ptr, ptr %5, align 8
  %37 = load i32, ptr @hf_radiotap_ht_length, align 4
  %38 = load ptr, ptr %6, align 8
  %39 = load i32, ptr %7, align 4
  %40 = call ptr @proto_tree_add_item(ptr noundef %36, i32 noundef %37, ptr noundef %38, i32 noundef %39, i32 noundef 3, i32 noundef -2147483648)
  %41 = load i32, ptr %7, align 4
  %42 = add i32 %41, 3
  store i32 %42, ptr %7, align 4
  %43 = load ptr, ptr %5, align 8
  %44 = load i32, ptr @hf_radiotap_ht_smoothing, align 4
  %45 = load ptr, ptr %6, align 8
  %46 = load i32, ptr %7, align 4
  %47 = call ptr @proto_tree_add_item(ptr noundef %43, i32 noundef %44, ptr noundef %45, i32 noundef %46, i32 noundef 1, i32 noundef -2147483648)
  %48 = load ptr, ptr %5, align 8
  %49 = load i32, ptr @hf_radiotap_ht_notsounding, align 4
  %50 = load ptr, ptr %6, align 8
  %51 = load i32, ptr %7, align 4
  %52 = call ptr @proto_tree_add_item(ptr noundef %48, i32 noundef %49, ptr noundef %50, i32 noundef %51, i32 noundef 3, i32 noundef -2147483648)
  %53 = load ptr, ptr %5, align 8
  %54 = load i32, ptr @hf_radiotap_ht_aggregation, align 4
  %55 = load ptr, ptr %6, align 8
  %56 = load i32, ptr %7, align 4
  %57 = call ptr @proto_tree_add_item(ptr noundef %53, i32 noundef %54, ptr noundef %55, i32 noundef %56, i32 noundef 3, i32 noundef -2147483648)
  %58 = load ptr, ptr %5, align 8
  %59 = load i32, ptr @hf_radiotap_ht_stbc, align 4
  %60 = load ptr, ptr %6, align 8
  %61 = load i32, ptr %7, align 4
  %62 = call ptr @proto_tree_add_item_ret_uint(ptr noundef %58, i32 noundef %59, ptr noundef %60, i32 noundef %61, i32 noundef 3, i32 noundef -2147483648, ptr noundef %10)
  %63 = load ptr, ptr %8, align 8
  %64 = getelementptr inbounds nuw %struct.ieee_802_11_phdr, ptr %63, i32 0, i32 3
  %65 = load i8, ptr %64, align 4
  %66 = and i8 %65, -33
  %67 = or i8 %66, 32
  store i8 %67, ptr %64, align 4
  %68 = load i32, ptr %10, align 4
  %69 = load ptr, ptr %8, align 8
  %70 = getelementptr inbounds nuw %struct.ieee_802_11_phdr, ptr %69, i32 0, i32 3
  %71 = getelementptr inbounds nuw %struct.ieee_802_11n, ptr %70, i32 0, i32 3
  %72 = trunc i32 %68 to i8
  %73 = load i8, ptr %71, align 4
  %74 = and i8 %72, 3
  %75 = shl i8 %74, 3
  %76 = and i8 %73, -25
  %77 = or i8 %76, %75
  store i8 %77, ptr %71, align 4
  %78 = load ptr, ptr %5, align 8
  %79 = load i32, ptr @hf_radiotap_ht_feccoding, align 4
  %80 = load ptr, ptr %6, align 8
  %81 = load i32, ptr %7, align 4
  %82 = call ptr @proto_tree_add_item_ret_uint(ptr noundef %78, i32 noundef %79, ptr noundef %80, i32 noundef %81, i32 noundef 3, i32 noundef -2147483648, ptr noundef %11)
  %83 = load ptr, ptr %8, align 8
  %84 = getelementptr inbounds nuw %struct.ieee_802_11_phdr, ptr %83, i32 0, i32 3
  %85 = load i8, ptr %84, align 4
  %86 = and i8 %85, -17
  %87 = or i8 %86, 16
  store i8 %87, ptr %84, align 4
  %88 = load i32, ptr %11, align 4
  %89 = load ptr, ptr %8, align 8
  %90 = getelementptr inbounds nuw %struct.ieee_802_11_phdr, ptr %89, i32 0, i32 3
  %91 = getelementptr inbounds nuw %struct.ieee_802_11n, ptr %90, i32 0, i32 3
  %92 = trunc i32 %88 to i8
  %93 = load i8, ptr %91, align 4
  %94 = and i8 %92, 1
  %95 = shl i8 %94, 2
  %96 = and i8 %93, -5
  %97 = or i8 %96, %95
  store i8 %97, ptr %91, align 4
  %98 = load ptr, ptr %5, align 8
  %99 = load i32, ptr @hf_radiotap_ht_short_gi, align 4
  %100 = load ptr, ptr %6, align 8
  %101 = load i32, ptr %7, align 4
  %102 = call ptr @proto_tree_add_item_ret_boolean(ptr noundef %98, i32 noundef %99, ptr noundef %100, i32 noundef %101, i32 noundef 3, i32 noundef -2147483648, ptr noundef %12)
  %103 = load ptr, ptr %8, align 8
  %104 = getelementptr inbounds nuw %struct.ieee_802_11_phdr, ptr %103, i32 0, i32 3
  %105 = load i8, ptr %104, align 4
  %106 = and i8 %105, -5
  %107 = or i8 %106, 4
  store i8 %107, ptr %104, align 4
  %108 = load i8, ptr %12, align 1, !range !6, !noundef !7
  %109 = trunc i8 %108 to i1
  %110 = zext i1 %109 to i32
  %111 = load ptr, ptr %8, align 8
  %112 = getelementptr inbounds nuw %struct.ieee_802_11_phdr, ptr %111, i32 0, i32 3
  %113 = getelementptr inbounds nuw %struct.ieee_802_11n, ptr %112, i32 0, i32 3
  %114 = trunc i32 %110 to i8
  %115 = load i8, ptr %113, align 4
  %116 = and i8 %114, 1
  %117 = and i8 %115, -2
  %118 = or i8 %117, %116
  store i8 %118, ptr %113, align 4
  %119 = load ptr, ptr %5, align 8
  %120 = load i32, ptr @hf_radiotap_ht_ness, align 4
  %121 = load ptr, ptr %6, align 8
  %122 = load i32, ptr %7, align 4
  %123 = call ptr @proto_tree_add_item_ret_uint(ptr noundef %119, i32 noundef %120, ptr noundef %121, i32 noundef %122, i32 noundef 3, i32 noundef -2147483648, ptr noundef %13)
  %124 = load ptr, ptr %8, align 8
  %125 = getelementptr inbounds nuw %struct.ieee_802_11_phdr, ptr %124, i32 0, i32 3
  %126 = load i8, ptr %125, align 4
  %127 = and i8 %126, -65
  %128 = or i8 %127, 64
  store i8 %128, ptr %125, align 4
  %129 = load i32, ptr %13, align 4
  %130 = load ptr, ptr %8, align 8
  %131 = getelementptr inbounds nuw %struct.ieee_802_11_phdr, ptr %130, i32 0, i32 3
  %132 = getelementptr inbounds nuw %struct.ieee_802_11n, ptr %131, i32 0, i32 4
  store i32 %129, ptr %132, align 4
  %133 = load ptr, ptr %5, align 8
  %134 = load i32, ptr @hf_radiotap_ht_crc, align 4
  %135 = load ptr, ptr %6, align 8
  %136 = load i32, ptr %7, align 4
  %137 = call ptr @proto_tree_add_item(ptr noundef %133, i32 noundef %134, ptr noundef %135, i32 noundef %136, i32 noundef 3, i32 noundef -2147483648)
  %138 = load ptr, ptr %5, align 8
  %139 = load i32, ptr @hf_radiotap_ht_tail, align 4
  %140 = load ptr, ptr %6, align 8
  %141 = load i32, ptr %7, align 4
  %142 = call ptr @proto_tree_add_item(ptr noundef %138, i32 noundef %139, ptr noundef %140, i32 noundef %141, i32 noundef 3, i32 noundef -2147483648)
  %143 = load i32, ptr %7, align 4
  %144 = add i32 %143, 3
  store i32 %144, ptr %7, align 4
  %145 = load i32, ptr %7, align 4
  call void @llvm.lifetime.end.p0(i64 4, ptr %13) #8
  call void @llvm.lifetime.end.p0(i64 1, ptr %12) #8
  call void @llvm.lifetime.end.p0(i64 4, ptr %11) #8
  call void @llvm.lifetime.end.p0(i64 4, ptr %10) #8
  call void @llvm.lifetime.end.p0(i64 4, ptr %9) #8
  ret i32 %145
}