; Function Attrs: null_pointer_is_valid sspstrong uwtable
define internal fastcc range(i32 22, 41) i32 @decode_ht_sig(ptr noundef %0, ptr noundef %1, i32 noundef range(i32 16, 35) %2, ptr noundef captures(none) initializes((24, 28)) %3) unnamed_addr #0 {
  %5 = alloca i32, align 4
  %6 = alloca i32, align 4
  %7 = alloca i32, align 4
  %8 = alloca i8, align 1
  %9 = alloca i32, align 4
  call void @llvm.lifetime.start.p0(i64 4, ptr nonnull %5) #6
  call void @llvm.lifetime.start.p0(i64 4, ptr nonnull %6) #6
  call void @llvm.lifetime.start.p0(i64 4, ptr nonnull %7) #6
  call void @llvm.lifetime.start.p0(i64 1, ptr nonnull %8) #6
  call void @llvm.lifetime.start.p0(i64 4, ptr nonnull %9) #6
  %10 = load i32, ptr @hf_radiotap_ht_mcsindex, align 4
  %11 = tail call ptr @proto_tree_add_item(ptr noundef %0, i32 noundef %10, ptr noundef %1, i32 noundef %2, i32 noundef 3, i32 noundef -2147483648)
  %12 = load i32, ptr @hf_radiotap_ht_bw, align 4
  %13 = call ptr @proto_tree_add_item_ret_uint(ptr noundef %0, i32 noundef %12, ptr noundef %1, i32 noundef %2, i32 noundef 3, i32 noundef -2147483648, ptr noundef nonnull %5)
  %14 = load i32, ptr %5, align 4
  %.not = icmp eq i32 %14, 0
  br i1 %.not, label %20, label %15

15:                                               ; preds = %4
  %16 = getelementptr inbounds nuw i8, ptr %3, i64 12
  %17 = load i8, ptr %16, align 4
  %18 = or i8 %17, 2
  store i8 %18, ptr %16, align 4
  %19 = getelementptr inbounds nuw i8, ptr %3, i64 16
  store i32 1, ptr %19, align 4
  br label %20

20:                                               ; preds = %15, %4
  %21 = load i32, ptr @hf_radiotap_ht_length, align 4
  %22 = call ptr @proto_tree_add_item(ptr noundef %0, i32 noundef %21, ptr noundef %1, i32 noundef %2, i32 noundef 3, i32 noundef -2147483648)
  %23 = add nuw nsw i32 %2, 3
  %24 = load i32, ptr @hf_radiotap_ht_smoothing, align 4
  %25 = call ptr @proto_tree_add_item(ptr noundef %0, i32 noundef %24, ptr noundef %1, i32 noundef %23, i32 noundef 1, i32 noundef -2147483648)
  %26 = load i32, ptr @hf_radiotap_ht_notsounding, align 4
  %27 = call ptr @proto_tree_add_item(ptr noundef %0, i32 noundef %26, ptr noundef %1, i32 noundef %23, i32 noundef 3, i32 noundef -2147483648)
  %28 = load i32, ptr @hf_radiotap_ht_aggregation, align 4
  %29 = call ptr @proto_tree_add_item(ptr noundef %0, i32 noundef %28, ptr noundef %1, i32 noundef %23, i32 noundef 3, i32 noundef -2147483648)
  %30 = load i32, ptr @hf_radiotap_ht_stbc, align 4
  %31 = call ptr @proto_tree_add_item_ret_uint(ptr noundef %0, i32 noundef %30, ptr noundef %1, i32 noundef %23, i32 noundef 3, i32 noundef -2147483648, ptr noundef nonnull %6)
  %32 = getelementptr inbounds nuw i8, ptr %3, i64 12
  %33 = load i8, ptr %32, align 4
  %34 = or i8 %33, 32
  store i8 %34, ptr %32, align 4
  %35 = load i32, ptr %6, align 4
  %36 = getelementptr inbounds nuw i8, ptr %3, i64 20
  %37 = trunc i32 %35 to i8
  %38 = load i8, ptr %36, align 4
  %39 = shl i8 %37, 3
  %40 = and i8 %39, 24
  %41 = and i8 %38, -25
  %42 = or disjoint i8 %40, %41
  store i8 %42, ptr %36, align 4
  %43 = load i32, ptr @hf_radiotap_ht_feccoding, align 4
  %44 = call ptr @proto_tree_add_item_ret_uint(ptr noundef %0, i32 noundef %43, ptr noundef %1, i32 noundef %23, i32 noundef 3, i32 noundef -2147483648, ptr noundef nonnull %7)
  %45 = load i8, ptr %32, align 4
  %46 = or i8 %45, 16
  store i8 %46, ptr %32, align 4
  %47 = load i32, ptr %7, align 4
  %48 = trunc i32 %47 to i8
  %49 = load i8, ptr %36, align 4
  %50 = shl i8 %48, 2
  %51 = and i8 %50, 4
  %52 = and i8 %49, -5
  %53 = or disjoint i8 %51, %52
  store i8 %53, ptr %36, align 4
  %54 = load i32, ptr @hf_radiotap_ht_short_gi, align 4
  %55 = call ptr @proto_tree_add_item_ret_boolean(ptr noundef %0, i32 noundef %54, ptr noundef %1, i32 noundef %23, i32 noundef 3, i32 noundef -2147483648, ptr noundef nonnull %8)
  %56 = load i8, ptr %32, align 4
  %57 = or i8 %56, 4
  store i8 %57, ptr %32, align 4
  %58 = load i8, ptr %8, align 1, !range !6, !noundef !7
  %59 = load i8, ptr %36, align 4
  %60 = and i8 %59, -2
  %61 = or disjoint i8 %60, %58
  store i8 %61, ptr %36, align 4
  %62 = load i32, ptr @hf_radiotap_ht_ness, align 4
  %63 = call ptr @proto_tree_add_item_ret_uint(ptr noundef %0, i32 noundef %62, ptr noundef %1, i32 noundef %23, i32 noundef 3, i32 noundef -2147483648, ptr noundef nonnull %9)
  %64 = load i8, ptr %32, align 4
  %65 = or i8 %64, 64
  store i8 %65, ptr %32, align 4
  %66 = load i32, ptr %9, align 4
  %67 = getelementptr inbounds nuw i8, ptr %3, i64 24
  store i32 %66, ptr %67, align 4
  %68 = load i32, ptr @hf_radiotap_ht_crc, align 4
  %69 = call ptr @proto_tree_add_item(ptr noundef %0, i32 noundef %68, ptr noundef %1, i32 noundef %23, i32 noundef 3, i32 noundef -2147483648)
  %70 = load i32, ptr @hf_radiotap_ht_tail, align 4
  %71 = call ptr @proto_tree_add_item(ptr noundef %0, i32 noundef %70, ptr noundef %1, i32 noundef %23, i32 noundef 3, i32 noundef -2147483648)
  %72 = add nuw nsw i32 %2, 6
  call void @llvm.lifetime.end.p0(i64 4, ptr nonnull %9) #6
  call void @llvm.lifetime.end.p0(i64 1, ptr nonnull %8) #6
  call void @llvm.lifetime.end.p0(i64 4, ptr nonnull %7) #6
  call void @llvm.lifetime.end.p0(i64 4, ptr nonnull %6) #6
  call void @llvm.lifetime.end.p0(i64 4, ptr nonnull %5) #6
  ret i32 %72
}